target datalayout = "e-m:e-p270:32:32-p271:32:32-p272:64:64-i64:64-i128:128-f80:128-n8:16:32:64-S128"
target triple = "x86_64-pc-linux-gnu"

%struct.FFOutputFormat = type { %struct.AVOutputFormat, i32, i32, ptr, ptr, ptr, ptr, ptr, ptr, ptr, ptr, ptr, ptr, ptr, ptr }
%struct.AVOutputFormat = type { ptr, ptr, ptr, ptr, i32, i32, i32, i32, ptr, ptr }
%struct.AVFormatContext = type { ptr, ptr, ptr, ptr, ptr, i32, i32, ptr, i32, ptr, i32, ptr, ptr, i64, i64, i64, i32, i32, i32, i64, i64, ptr, i32, i32, ptr, i32, i32, i32, i32, ptr, i64, i32, i32, %struct.AVIOInterruptCB, i32, i32, i32, i32, i64, i32, i32, i32, i32, i32, i32, i32, i32, i32, i32, i32, i32, i64, i32, i32, i32, i32, i32, ptr, ptr, ptr, ptr, i32, ptr, ptr, ptr, ptr, i32, ptr, ptr, i64, ptr, ptr, ptr, i64 }
%struct.AVIOInterruptCB = type { ptr, ptr }
%struct.AVPacket = type { ptr, i64, i64, ptr, i32, i32, i32, ptr, i32, i64, i64, ptr, ptr, %struct.AVRational }
%struct.AVRational = type { i32, i32 }

@.str = private unnamed_addr constant [16 x i8] c"mkvtimestamp_v2\00", align 1
@.str.1 = private unnamed_addr constant [60 x i8] c"extract pts as timecode v2 format, as defined by mkvtoolnix\00", align 1
@ff_mkvtimestamp_v2_muxer = constant %struct.FFOutputFormat { %struct.AVOutputFormat { ptr @.str, ptr @.str.1, ptr null, ptr null, i32 0, i32 13, i32 0, i32 0, ptr null, ptr null }, i32 0, i32 0, ptr @write_header, ptr @write_packet, ptr null, ptr null, ptr null, ptr null, ptr null, ptr null, ptr null, ptr null, ptr null, ptr null }, align 8
@write_header.header = internal global ptr @.str.2, align 8
@.str.2 = private unnamed_addr constant [22 x i8] c"# timecode format v2\0A\00", align 1
@.str.3 = private unnamed_addr constant [34 x i8] c"More than one stream unsupported\0A\00", align 1
@.str.4 = private unnamed_addr constant [5 x i8] c"%ld\0A\00", align 1

; Function Attrs: nounwind uwtable
define internal i32 @write_header(ptr noundef %0) #0 {
  %2 = alloca ptr, align 8
  store ptr %0, ptr %2, align 8, !tbaa !4
  %3 = load ptr, ptr %2, align 8, !tbaa !4
  %4 = getelementptr inbounds nuw %struct.AVFormatContext, ptr %3, i32 0, i32 4
  %5 = load ptr, ptr %4, align 8, !tbaa !9
  %6 = load ptr, ptr @write_header.header, align 8, !tbaa !26
  %7 = load ptr, ptr @write_header.header, align 8, !tbaa !26
  %8 = call i64 @strlen(ptr noundef %7) #5
  %9 = trunc i64 %8 to i32
  call void @avio_write(ptr noundef %5, ptr noundef %6, i32 noundef %9)
  %10 = load ptr, ptr %2, align 8, !tbaa !4
  %11 = getelementptr inbounds nuw %struct.AVFormatContext, ptr %10, i32 0, i32 7
  %12 = load ptr, ptr %11, align 8, !tbaa !27
  %13 = getelementptr inbounds ptr, ptr %12, i64 0
  %14 = load ptr, ptr %13, align 8, !tbaa !28
  call void @avpriv_set_pts_info(ptr noundef %14, i32 noundef 64, i32 noundef 1, i32 noundef 1000)
  ret i32 0
}

; Function Attrs: nounwind uwtable
define internal i32 @write_packet(ptr noundef %0, ptr noundef %1) #0 {
  %3 = alloca ptr, align 8
  %4 = alloca ptr, align 8
  %5 = alloca [256 x i8], align 16
  store ptr %0, ptr %3, align 8, !tbaa !4
  store ptr %1, ptr %4, align 8, !tbaa !30
  call void @llvm.lifetime.start.p0(i64 256, ptr %5) #6
  %6 = load ptr, ptr %4, align 8, !tbaa !30
  %7 = getelementptr inbounds nuw %struct.AVPacket, ptr %6, i32 0, i32 5
  %8 = load i32, ptr %7, align 4, !tbaa !32
  %9 = icmp ne i32 %8, 0
  br i1 %9, label %10, label %12

10:                                               ; preds = %2
  %11 = load ptr, ptr %3, align 8, !tbaa !4
  call void (ptr, i32, ptr, ...) @av_log(ptr noundef %11, i32 noundef 24, ptr noundef @.str.3)
  br label %12

12:                                               ; preds = %10, %2
  %13 = getelementptr inbounds [256 x i8], ptr %5, i64 0, i64 0
  %14 = load ptr, ptr %4, align 8, !tbaa !30
  %15 = getelementptr inbounds nuw %struct.AVPacket, ptr %14, i32 0, i32 2
  %16 = load i64, ptr %15, align 8, !tbaa !37
  %17 = call i32 (ptr, i64, ptr, ...) @snprintf(ptr noundef %13, i64 noundef 256, ptr noundef @.str.4, i64 noundef %16) #6
  %18 = load ptr, ptr %3, align 8, !tbaa !4
  %19 = getelementptr inbounds nuw %struct.AVFormatContext, ptr %18, i32 0, i32 4
  %20 = load ptr, ptr %19, align 8, !tbaa !9
  %21 = getelementptr inbounds [256 x i8], ptr %5, i64 0, i64 0
  %22 = getelementptr inbounds [256 x i8], ptr %5, i64 0, i64 0
  %23 = call i64 @strlen(ptr noundef %22) #5
  %24 = trunc i64 %23 to i32
  call void @avio_write(ptr noundef %20, ptr noundef %21, i32 noundef %24)
  call void @llvm.lifetime.end.p0(i64 256, ptr %5) #6
  ret i32 0
}

declare void @avio_write(ptr noundef, ptr noundef, i32 noundef) #1

; Function Attrs: nounwind willreturn memory(read)
declare i64 @strlen(ptr noundef) #2

declare void @avpriv_set_pts_info(ptr noundef, i32 noundef, i32 noundef, i32 noundef) #1

; Function Attrs: nocallback nofree nosync nounwind willreturn memory(argmem: readwrite)
declare void @llvm.lifetime.start.p0(i64 immarg, ptr captures(none)) #3

declare void @av_log(ptr noundef, i32 noundef, ptr noundef, ...) #1

; Function Attrs: nounwind
declare i32 @snprintf(ptr noundef, i64 noundef, ptr noundef, ...) #4

; Function Attrs: nocallback nofree nosync nounwind willreturn memory(argmem: readwrite)
declare void @llvm.lifetime.end.p0(i64 immarg, ptr captures(none)) #3


!llvm.module.flags = !{!0, !1, !2, !3}

!0 = !{i32 1, !"wchar_size", i32 4}
!1 = !{i32 8, !"PIC Level", i32 2}
!2 = !{i32 7, !"uwtable", i32 2}
!3 = !{i32 1, !"override-stack-alignment", i32 16}
!4 = !{!5, !5, i64 0}
!5 = !{!"p1 _ZTS15AVFormatContext", !6, i64 0}
!6 = !{!"any pointer", !7, i64 0}
!7 = !{!"omnipotent char", !8, i64 0}
!8 = !{!"Simple C/C++ TBAA"}
!9 = !{!10, !14, i64 32}
!10 = !{!"AVFormatContext", !11, i64 0, !12, i64 8, !13, i64 16, !6, i64 24, !14, i64 32, !15, i64 40, !15, i64 44, !16, i64 48, !15, i64 56, !18, i64 64, !15, i64 72, !19, i64 80, !20, i64 88, !21, i64 96, !21, i64 104, !21, i64 112, !15, i64 120, !15, i64 124, !15, i64 128, !21, i64 136, !21, i64 144, !20, i64 152, !15, i64 160, !15, i64 164, !22, i64 168, !15, i64 176, !15, i64 180, !15, i64 184, !15, i64 188, !23, i64 192, !21, i64 200, !15, i64 208, !15, i64 212, !24, i64 216, !15, i64 232, !15, i64 236, !15, i64 240, !15, i64 244, !21, i64 248, !15, i64 256, !15, i64 260, !15, i64 264, !15, i64 268, !15, i64 272, !15, i64 276, !15, i64 280, !15, i64 284, !15, i64 288, !15, i64 292, !15, i64 296, !15, i64 300, !21, i64 304, !15, i64 312, !15, i64 316, !15, i64 320, !15, i64 324, !15, i64 328, !20, i64 336, !20, i64 344, !20, i64 352, !20, i64 360, !15, i64 368, !25, i64 376, !25, i64 384, !25, i64 392, !25, i64 400, !15, i64 408, !6, i64 416, !6, i64 424, !21, i64 432, !20, i64 440, !6, i64 448, !6, i64 456, !21, i64 464}
!11 = !{!"p1 _ZTS7AVClass", !6, i64 0}
!12 = !{!"p1 _ZTS13AVInputFormat", !6, i64 0}
!13 = !{!"p1 _ZTS14AVOutputFormat", !6, i64 0}
!14 = !{!"p1 _ZTS11AVIOContext", !6, i64 0}
!15 = !{!"int", !7, i64 0}
!16 = !{!"p2 _ZTS8AVStream", !17, i64 0}
!17 = !{!"any p2 pointer", !6, i64 0}
!18 = !{!"p2 _ZTS13AVStreamGroup", !17, i64 0}
!19 = !{!"p2 _ZTS9AVChapter", !17, i64 0}
!20 = !{!"p1 omnipotent char", !6, i64 0}
!21 = !{!"long", !7, i64 0}
!22 = !{!"p2 _ZTS9AVProgram", !17, i64 0}
!23 = !{!"p1 _ZTS12AVDictionary", !6, i64 0}
!24 = !{!"AVIOInterruptCB", !6, i64 0, !6, i64 8}
!25 = !{!"p1 _ZTS7AVCodec", !6, i64 0}
!26 = !{!20, !20, i64 0}
!27 = !{!10, !16, i64 48}
!28 = !{!29, !29, i64 0}
!29 = !{!"p1 _ZTS8AVStream", !6, i64 0}
!30 = !{!31, !31, i64 0}
!31 = !{!"p1 _ZTS8AVPacket", !6, i64 0}
!32 = !{!33, !15, i64 36}
!33 = !{!"AVPacket", !34, i64 0, !21, i64 8, !21, i64 16, !20, i64 24, !15, i64 32, !15, i64 36, !15, i64 40, !35, i64 48, !15, i64 56, !21, i64 64, !21, i64 72, !6, i64 80, !34, i64 88, !36, i64 96}
!34 = !{!"p1 _ZTS11AVBufferRef", !6, i64 0}
!35 = !{!"p1 _ZTS16AVPacketSideData", !6, i64 0}
!36 = !{!"AVRational", !15, i64 0, !15, i64 4}
!37 = !{!33, !21, i64 16}
